target datalayout = "e-m:e-p270:32:32-p271:32:32-p272:64:64-i64:64-i128:128-f80:128-n8:16:32:64-S128"
target triple = "x86_64-pc-linux-gnu"

%"class.sat::literal" = type { i32 }
%"class.q::ematch" = type { ptr, ptr, ptr, %"class.q::eval", %"class.q::quantifier_stat_gen", %class.ptr_hashtable, %class.scoped_ptr, i32, %"class.q::queue", %class.svector.42, %class.pattern_inference_rw, %class.scoped_ptr.84, %class.scoped_ptr.84, %class.ptr_vector.85, %class.obj_map.87, %class.vector.92, %"struct.q::ematch::stats", %class.ast_fast_mark, i32, %class.ptr_vector.23, i8, %class.nat_set, %class.nat_set, i32, %class.svector.30, %class.svector.93, i8, %class.symbol, %class.ptr_vector.95, %class.svector.97, %class.ref_vector, %class.ref_vector.20, %class.defined_names, %class.nnf }
%"class.q::eval" = type { ptr, ptr, %class.ast_fast_mark, %class.ptr_vector, %class.ptr_vector, i8, %"struct.std::pair", %class.contains_vars }
%class.ptr_vector = type { %class.vector }
%class.vector = type { ptr }
%"struct.std::pair" = type { ptr, ptr }
%class.contains_vars = type { ptr }
%"class.q::quantifier_stat_gen" = type <{ ptr, ptr, %class.obj_map, %class.svector, %class.approx_nat, [4 x i8] }>
%class.obj_map = type { %class.core_hashtable }
%class.core_hashtable = type <{ ptr, i32, i32, i32, [4 x i8] }>
%class.svector = type { %class.vector.0 }
%class.vector.0 = type { ptr }
%class.approx_nat = type { i32 }
%class.ptr_hashtable = type { %class.core_hashtable.base.2, [4 x i8] }
%class.core_hashtable.base.2 = type <{ ptr, i32, i32, i32 }>
%class.scoped_ptr = type { ptr }
%"class.q::queue" = type { ptr, ptr, ptr, ptr, %"struct.q::queue::stats", %class.obj_ref, %class.obj_ref, %class.cost_parser, %class.cost_evaluator, %class.cached_var_subst, %class.svector.38, double, %class.svector.40, %class.svector.40 }
%"struct.q::queue::stats" = type { i32, i32 }
%class.obj_ref = type { ptr, ptr }
%class.cost_parser = type { %class.simple_parser, %class.arith_util, %class.ref_vector.11 }
%class.simple_parser = type { ptr, ptr, %class.map, %class.map.5, %class.ref_vector }
%class.map = type { %class.table2map }
%class.table2map = type { %class.core_hashtable.3 }
%class.core_hashtable.3 = type <{ ptr, i32, i32, i32, [4 x i8] }>
%class.map.5 = type { %class.table2map.6 }
%class.table2map.6 = type { %class.core_hashtable.7 }
%class.core_hashtable.7 = type <{ ptr, i32, i32, i32, [4 x i8] }>
%class.arith_util = type { ptr, ptr }
%class.ref_vector.11 = type { %class.ref_vector_core.12 }
%class.ref_vector_core.12 = type { %class.ref_manager_wrapper.13, %class.ptr_vector.14 }
%class.ref_manager_wrapper.13 = type { ptr }
%class.ptr_vector.14 = type { %class.vector.15 }
%class.vector.15 = type { ptr }
%class.cost_evaluator = type { ptr, %class.arith_util, i32, ptr }
%class.cached_var_subst = type { ptr, %class.var_subst, %class.ref_vector, %class.map.32, %class.region, %class.ptr_vector.36, ptr }
%class.var_subst = type { %class.beta_reducer, i8, [7 x i8] }
%class.beta_reducer = type <{ %class.rewriter_tpl, [8 x i8] }>
%class.rewriter_tpl = type { %class.rewriter_core, ptr, i32, %class.ptr_vector.9, %class.var_shifter, %class.inv_var_shifter, %class.obj_ref, %class.obj_ref.29, %class.obj_ref.29, %class.svector.30 }
%class.rewriter_core = type { ptr, ptr, i8, i8, %class.ptr_vector.16, ptr, %class.svector.18, %class.ref_vector, %class.ptr_vector.16, ptr, %class.ref_vector.20, %class.obj_hashtable, ptr, i32, %class.svector.27 }
%class.svector.18 = type { %class.vector.19 }
%class.vector.19 = type { ptr }
%class.ptr_vector.16 = type { %class.vector.17 }
%class.vector.17 = type { ptr }
%class.obj_hashtable = type { %class.core_hashtable.base.26, [4 x i8] }
%class.core_hashtable.base.26 = type <{ ptr, i32, i32, i32 }>
%class.svector.27 = type { %class.vector.28 }
%class.vector.28 = type { ptr }
%class.ptr_vector.9 = type { %class.vector.10 }
%class.vector.10 = type { ptr }
%class.var_shifter = type <{ %class.var_shifter_core, i32, i32, i32, [4 x i8] }>
%class.var_shifter_core = type { %class.rewriter_core }
%class.inv_var_shifter = type <{ %class.var_shifter_core, i32, [4 x i8] }>
%class.obj_ref.29 = type { ptr, ptr }
%class.map.32 = type { %class.table2map.33 }
%class.table2map.33 = type { %class.core_hashtable.34 }
%class.core_hashtable.34 = type <{ ptr, i32, i32, i32, [4 x i8] }>
%class.region = type { ptr, ptr, ptr, ptr, ptr }
%class.ptr_vector.36 = type { %class.vector.37 }
%class.vector.37 = type { ptr }
%class.svector.38 = type { %class.vector.39 }
%class.vector.39 = type { ptr }
%class.svector.40 = type { %class.vector.41 }
%class.vector.41 = type { ptr }
%class.svector.42 = type { %class.vector.43 }
%class.vector.43 = type { ptr }
%class.pattern_inference_rw = type { %class.rewriter_tpl.44, %class.pattern_inference_cfg }
%class.rewriter_tpl.44 = type { %class.rewriter_core, ptr, i32, %class.ptr_vector.9, %class.var_shifter, %class.inv_var_shifter, %class.obj_ref, %class.obj_ref.29, %class.obj_ref.29, %class.svector.30 }
%class.pattern_inference_cfg = type { ptr, ptr, i32, i32, %class.svector.45, %class.obj_hashtable.47, %class.smaller_pattern, i32, i32, ptr, i8, i8, i8, [5 x i8], %class.obj_map.58, %class.ref_vector.20, %class.ptr_vector.23, %class.ptr_vector.23, %class.ptr_vector.23, %"struct.pattern_inference_cfg::pattern_weight_lt", %"class.pattern_inference_cfg::collect", %"class.pattern_inference_cfg::contains_subpattern", %class.ptr_vector.73, %class.expr_pattern_match, %class.ptr_buffer.82 }
%class.svector.45 = type { %class.vector.46 }
%class.vector.46 = type { ptr }
%class.obj_hashtable.47 = type { %class.core_hashtable.base.51, [4 x i8] }
%class.core_hashtable.base.51 = type <{ ptr, i32, i32, i32 }>
%class.smaller_pattern = type { %class.ptr_vector.9, %class.svector.53, %class.obj_pair_hashtable }
%class.svector.53 = type { %class.vector.54 }
%class.vector.54 = type { ptr }
%class.obj_pair_hashtable = type { %class.core_hashtable.base.57, [4 x i8] }
%class.core_hashtable.base.57 = type <{ ptr, i32, i32, i32 }>
%class.obj_map.58 = type { %class.core_hashtable.59 }
%class.core_hashtable.59 = type <{ ptr, i32, i32, i32, [4 x i8] }>
%"struct.pattern_inference_cfg::pattern_weight_lt" = type { ptr }
%"class.pattern_inference_cfg::collect" = type { ptr, ptr, i32, i32, %class.map.63, %class.ptr_vector.69, %class.svector.71 }
%class.map.63 = type { %class.table2map.64 }
%class.table2map.64 = type { %class.core_hashtable.65 }
%class.core_hashtable.65 = type <{ ptr, i32, i32, i32, [4 x i8] }>
%class.ptr_vector.69 = type { %class.vector.70 }
%class.vector.70 = type { ptr }
%class.svector.71 = type { %class.vector.72 }
%class.vector.72 = type { ptr }
%"class.pattern_inference_cfg::contains_subpattern" = type { ptr, %class.nat_set, %class.ptr_vector.9 }
%class.ptr_vector.73 = type { %class.vector.74 }
%class.vector.74 = type { ptr }
%class.expr_pattern_match = type { ptr, %class.ref_vector.75, %class.svector.30, %class.svector.80, %class.ptr_vector.9, %class.ptr_vector.14, %class.ptr_vector.14 }
%class.ref_vector.75 = type { %class.ref_vector_core.76 }
%class.ref_vector_core.76 = type { %class.ref_manager_wrapper.77, %class.ptr_vector.78 }
%class.ref_manager_wrapper.77 = type { ptr }
%class.ptr_vector.78 = type { %class.vector.79 }
%class.vector.79 = type { ptr }
%class.svector.80 = type { %class.vector.81 }
%class.vector.81 = type { ptr }
%class.ptr_buffer.82 = type { %class.buffer.83 }
%class.buffer.83 = type { ptr, i32, i32, [128 x i8] }
%class.scoped_ptr.84 = type { ptr }
%class.ptr_vector.85 = type { %class.vector.86 }
%class.vector.86 = type { ptr }
%class.obj_map.87 = type { %class.core_hashtable.88 }
%class.core_hashtable.88 = type <{ ptr, i32, i32, i32, [4 x i8] }>
%class.vector.92 = type { ptr }
%"struct.q::ematch::stats" = type { i32, i32, i32, i32, i32 }
%class.ast_fast_mark = type { %class.ptr_buffer }
%class.ptr_buffer = type { %class.buffer }
%class.buffer = type { ptr, i32, i32, [128 x i8] }
%class.ptr_vector.23 = type { %class.vector.24 }
%class.vector.24 = type { ptr }
%class.nat_set = type { i32, %class.svector.30 }
%class.svector.30 = type { %class.vector.31 }
%class.vector.31 = type { ptr }
%class.svector.93 = type { %class.vector.94 }
%class.vector.94 = type { ptr }
%class.symbol = type { ptr }
%class.ptr_vector.95 = type { %class.vector.96 }
%class.vector.96 = type { ptr }
%class.svector.97 = type { %class.vector.98 }
%class.vector.98 = type { ptr }
%class.ref_vector = type { %class.ref_vector_core }
%class.ref_vector_core = type { %class.ref_manager_wrapper, %class.ptr_vector.9 }
%class.ref_manager_wrapper = type { ptr }
%class.ref_vector.20 = type { %class.ref_vector_core.21 }
%class.ref_vector_core.21 = type { %class.ref_manager_wrapper.22, %class.ptr_vector.23 }
%class.ref_manager_wrapper.22 = type { ptr }
%class.defined_names = type { ptr, ptr }
%class.nnf = type { ptr }
%"struct.q::clause" = type { i32, %class.vector.324, %class.obj_ref.325, i32, %"class.sat::literal", ptr, ptr }
%class.vector.324 = type { ptr }
%class.obj_ref.325 = type { ptr, ptr }
%class.quantifier = type { %class.expr, i32, i32, ptr, ptr, i32, i32, i8, i8, %class.symbol, %class.symbol, i32, i32, [0 x i8] }
%class.expr = type { %class.ast }
%class.ast = type { i32, i32, i32, i32 }
%"struct.q::binding" = type { %class.dll_base, ptr, ptr, i32, i32, i32, [0 x ptr] }
%class.dll_base = type { ptr, ptr }

; Function Attrs: mustprogress uwtable
define linkonce_odr hidden void @_Z7deallocIN1q7bindingEEvPT_(ptr noundef %0) #4 comdat {
  %2 = alloca ptr, align 8
  store ptr %0, ptr %2, align 8, !tbaa !560
  %3 = load ptr, ptr %2, align 8, !tbaa !560
  %4 = icmp eq ptr %3, null
  br i1 %4, label %5, label %6

5:                                                ; preds = %1
  br label %8

6:                                                ; preds = %1
  %7 = load ptr, ptr %2, align 8, !tbaa !560
  call void @_ZN6memory10deallocateEPv(ptr noundef %7)
  br label %8

8:                                                ; preds = %6, %5
  ret void
}

; Function Attrs: mustprogress nounwind uwtable
define linkonce_odr hidden void @_ZN8dll_baseIN1q7bindingEEC2Ev(ptr noundef nonnull align 8 dereferenceable(16) %0) unnamed_addr #5 comdat align 2 {
  %2 = alloca ptr, align 8
  store ptr %0, ptr %2, align 8, !tbaa !765
  %3 = load ptr, ptr %2, align 8
  %4 = getelementptr inbounds nuw %class.dll_base, ptr %3, i32 0, i32 0
  store ptr null, ptr %4, align 8, !tbaa !767
  %5 = getelementptr inbounds nuw %class.dll_base, ptr %3, i32 0, i32 1
  store ptr null, ptr %5, align 8, !tbaa !768
  ret void
}

; Function Attrs: mustprogress nounwind uwtable
define linkonce_odr hidden noundef i32 @_ZNK10quantifier13get_num_declsEv(ptr noundef nonnull align 8 dereferenceable(80) %0) #5 comdat align 2 {
  %2 = alloca ptr, align 8
  store ptr %0, ptr %2, align 8, !tbaa !646
  %3 = load ptr, ptr %2, align 8
  %4 = getelementptr inbounds nuw %class.quantifier, ptr %3, i32 0, i32 2
  %5 = load i32, ptr %4, align 4, !tbaa !1155
  ret i32 %5
}

; Function Attrs: mustprogress nounwind uwtable
define linkonce_odr hidden noundef ptr @_ZNK7obj_refI10quantifier11ast_managerEptEv(ptr noundef nonnull align 8 dereferenceable(16) %0) #5 comdat align 2 {
  %2 = alloca ptr, align 8
  store ptr %0, ptr %2, align 8, !tbaa !712
  %3 = load ptr, ptr %2, align 8
  %4 = getelementptr inbounds nuw %class.obj_ref.325, ptr %3, i32 0, i32 0
  %5 = load ptr, ptr %4, align 8, !tbaa !714
  ret ptr %5
}

; Function Attrs: mustprogress nounwind uwtable
define linkonce_odr hidden noundef ptr @_ZNK10scoped_ptrIN1q7bindingEE3getEv(ptr noundef nonnull align 8 dereferenceable(8) %0) #5 comdat align 2 {
  %2 = alloca ptr, align 8
  store ptr %0, ptr %2, align 8, !tbaa !558
  %3 = load ptr, ptr %2, align 8
  %4 = getelementptr inbounds nuw %class.scoped_ptr, ptr %3, i32 0, i32 0
  %5 = load ptr, ptr %4, align 8, !tbaa !561
  ret ptr %5
}

; Function Attrs: mustprogress nounwind uwtable
define linkonce_odr hidden noundef ptr @_ZNK10scoped_ptrIN1q7bindingEEptEv(ptr noundef nonnull align 8 dereferenceable(8) %0) #5 comdat align 2 {
  %2 = alloca ptr, align 8
  store ptr %0, ptr %2, align 8, !tbaa !558
  %3 = load ptr, ptr %2, align 8
  %4 = getelementptr inbounds nuw %class.scoped_ptr, ptr %3, i32 0, i32 0
  %5 = load ptr, ptr %4, align 8, !tbaa !561
  ret ptr %5
}

; Function Attrs: mustprogress uwtable
define linkonce_odr hidden noundef nonnull align 8 dereferenceable(8) ptr @_ZN10scoped_ptrIN1q7bindingEEaSEPS1_(ptr noundef nonnull align 8 dereferenceable(8) %0, ptr noundef %1) #4 comdat align 2 {
  %3 = alloca ptr, align 8
  %4 = alloca ptr, align 8
  store ptr %0, ptr %3, align 8, !tbaa !558
  store ptr %1, ptr %4, align 8, !tbaa !560
  %5 = load ptr, ptr %3, align 8
  %6 = getelementptr inbounds nuw %class.scoped_ptr, ptr %5, i32 0, i32 0
  %7 = load ptr, ptr %6, align 8, !tbaa !561
  %8 = load ptr, ptr %4, align 8, !tbaa !560
  %9 = icmp ne ptr %7, %8
  br i1 %9, label %10, label %15

10:                                               ; preds = %2
  %11 = getelementptr inbounds nuw %class.scoped_ptr, ptr %5, i32 0, i32 0
  %12 = load ptr, ptr %11, align 8, !tbaa !561
  call void @_Z7deallocIN1q7bindingEEvPT_(ptr noundef %12)
  %13 = load ptr, ptr %4, align 8, !tbaa !560
  %14 = getelementptr inbounds nuw %class.scoped_ptr, ptr %5, i32 0, i32 0
  store ptr %13, ptr %14, align 8, !tbaa !561
  br label %15

15:                                               ; preds = %10, %2
  ret ptr %5
}

; Function Attrs: mustprogress nounwind uwtable
define linkonce_odr hidden void @_ZN1q7bindingC2ERNS_6clauseEP3appjjj(ptr noundef nonnull align 8 dereferenceable(48) %0, ptr noundef nonnull align 8 dereferenceable(56) %1, ptr noundef %2, i32 noundef %3, i32 noundef %4, i32 noundef %5) unnamed_addr #5 comdat align 2 {
  %7 = alloca ptr, align 8
  %8 = alloca ptr, align 8
  %9 = alloca ptr, align 8
  %10 = alloca i32, align 4
  %11 = alloca i32, align 4
  %12 = alloca i32, align 4
  store ptr %0, ptr %7, align 8, !tbaa !560
  store ptr %1, ptr %8, align 8, !tbaa !644
  store ptr %2, ptr %9, align 8, !tbaa !641
  store i32 %3, ptr %10, align 4, !tbaa !553
  store i32 %4, ptr %11, align 4, !tbaa !553
  store i32 %5, ptr %12, align 4, !tbaa !553
  %13 = load ptr, ptr %7, align 8
  call void @_ZN8dll_baseIN1q7bindingEEC2Ev(ptr noundef nonnull align 8 dereferenceable(16) %13) #3
  %14 = getelementptr inbounds nuw %"struct.q::binding", ptr %13, i32 0, i32 1
  %15 = load ptr, ptr %8, align 8, !tbaa !644
  store ptr %15, ptr %14, align 8, !tbaa !757
  %16 = getelementptr inbounds nuw %"struct.q::binding", ptr %13, i32 0, i32 2
  %17 = load ptr, ptr %9, align 8, !tbaa !641
  store ptr %17, ptr %16, align 8, !tbaa !754
  %18 = getelementptr inbounds nuw %"struct.q::binding", ptr %13, i32 0, i32 3
  %19 = load i32, ptr %10, align 4, !tbaa !553
  store i32 %19, ptr %18, align 8, !tbaa !758
  %20 = getelementptr inbounds nuw %"struct.q::binding", ptr %13, i32 0, i32 4
  %21 = load i32, ptr %11, align 4, !tbaa !553
  store i32 %21, ptr %20, align 4, !tbaa !759
  %22 = getelementptr inbounds nuw %"struct.q::binding", ptr %13, i32 0, i32 5
  %23 = load i32, ptr %12, align 4, !tbaa !553
  store i32 %23, ptr %22, align 8, !tbaa !760
  ret void
}

; Function Attrs: mustprogress uwtable
define linkonce_odr hidden noundef i32 @_ZNK1q6clause9num_declsEv(ptr noundef nonnull align 8 dereferenceable(56) %0) #4 comdat align 2 {
  %2 = alloca ptr, align 8
  store ptr %0, ptr %2, align 8, !tbaa !644
  %3 = load ptr, ptr %2, align 8
  %4 = getelementptr inbounds nuw %"struct.q::clause", ptr %3, i32 0, i32 2
  %5 = call noundef ptr @_ZNK7obj_refI10quantifier11ast_managerEptEv(ptr noundef nonnull align 8 dereferenceable(16) %4)
  %6 = call noundef i32 @_ZNK10quantifier13get_num_declsEv(ptr noundef nonnull align 8 dereferenceable(80) %5)
  ret i32 %6
}

; Function Attrs: mustprogress uwtable
define hidden noundef ptr @_ZN1q6ematch11tmp_bindingERNS_6clauseEP3appPKPN3euf5enodeE(ptr noundef nonnull align 8 dereferenceable(2680) %0, ptr noundef nonnull align 8 dereferenceable(56) %1, ptr noundef %2, ptr noundef %3) #4 align 2 {
  %5 = alloca ptr, align 8
  %6 = alloca ptr, align 8
  %7 = alloca ptr, align 8
  %8 = alloca ptr, align 8
  %9 = alloca ptr, align 8
  %10 = alloca i32, align 4
  store ptr %0, ptr %5, align 8, !tbaa !3
  store ptr %1, ptr %6, align 8, !tbaa !644
  store ptr %2, ptr %7, align 8, !tbaa !641
  store ptr %3, ptr %8, align 8, !tbaa !665
  %11 = load ptr, ptr %5, align 8
  %12 = load ptr, ptr %6, align 8, !tbaa !644
  %13 = call noundef i32 @_ZNK1q6clause9num_declsEv(ptr noundef nonnull align 8 dereferenceable(56) %12)
  %14 = getelementptr inbounds nuw %"class.q::ematch", ptr %11, i32 0, i32 7
  %15 = load i32, ptr %14, align 8, !tbaa !206
  %16 = icmp ugt i32 %13, %15
  br i1 %16, label %17, label %32

17:                                               ; preds = %4
  call void @llvm.lifetime.start.p0(i64 8, ptr %9) #3
  %18 = load ptr, ptr %6, align 8, !tbaa !644
  %19 = call noundef i32 @_ZNK1q6clause9num_declsEv(ptr noundef nonnull align 8 dereferenceable(56) %18)
  %20 = zext i32 %19 to i64
  %21 = mul i64 %20, 8
  %22 = add i64 48, %21
  %23 = call noalias noundef ptr @_ZN6memory8allocateEm(i64 noundef %22)
  store ptr %23, ptr %9, align 8, !tbaa !599
  %24 = load ptr, ptr %9, align 8, !tbaa !599
  %25 = load ptr, ptr %6, align 8, !tbaa !644
  %26 = load ptr, ptr %7, align 8, !tbaa !641
  call void @_ZN1q7bindingC2ERNS_6clauseEP3appjjj(ptr noundef nonnull align 8 dereferenceable(48) %24, ptr noundef nonnull align 8 dereferenceable(56) %25, ptr noundef %26, i32 noundef 0, i32 noundef 0, i32 noundef 0)
  %27 = getelementptr inbounds nuw %"class.q::ematch", ptr %11, i32 0, i32 6
  %28 = call noundef nonnull align 8 dereferenceable(8) ptr @_ZN10scoped_ptrIN1q7bindingEEaSEPS1_(ptr noundef nonnull align 8 dereferenceable(8) %27, ptr noundef %24)
  %29 = load ptr, ptr %6, align 8, !tbaa !644
  %30 = call noundef i32 @_ZNK1q6clause9num_declsEv(ptr noundef nonnull align 8 dereferenceable(56) %29)
  %31 = getelementptr inbounds nuw %"class.q::ematch", ptr %11, i32 0, i32 7
  store i32 %30, ptr %31, align 8, !tbaa !206
  call void @llvm.lifetime.end.p0(i64 8, ptr %9) #3
  br label %32

32:                                               ; preds = %17, %4
  call void @llvm.lifetime.start.p0(i64 4, ptr %10) #3
  %33 = load ptr, ptr %6, align 8, !tbaa !644
  %34 = call noundef i32 @_ZNK1q6clause9num_declsEv(ptr noundef nonnull align 8 dereferenceable(56) %33)
  store i32 %34, ptr %10, align 4, !tbaa !553
  br label %35

35:                                               ; preds = %40, %32
  %36 = load i32, ptr %10, align 4, !tbaa !553
  %37 = add i32 %36, -1
  store i32 %37, ptr %10, align 4, !tbaa !553
  %38 = icmp ugt i32 %36, 0
  br i1 %38, label %40, label %39

39:                                               ; preds = %35
  call void @llvm.lifetime.end.p0(i64 4, ptr %10) #3
  br label %52

40:                                               ; preds = %35
  %41 = load ptr, ptr %8, align 8, !tbaa !665
  %42 = load i32, ptr %10, align 4, !tbaa !553
  %43 = zext i32 %42 to i64
  %44 = getelementptr inbounds nuw ptr, ptr %41, i64 %43
  %45 = load ptr, ptr %44, align 8, !tbaa !637
  %46 = getelementptr inbounds nuw %"class.q::ematch", ptr %11, i32 0, i32 6
  %47 = call noundef ptr @_ZNK10scoped_ptrIN1q7bindingEEptEv(ptr noundef nonnull align 8 dereferenceable(8) %46)
  %48 = getelementptr inbounds nuw %"struct.q::binding", ptr %47, i32 0, i32 6
  %49 = load i32, ptr %10, align 4, !tbaa !553
  %50 = zext i32 %49 to i64
  %51 = getelementptr inbounds nuw [0 x ptr], ptr %48, i64 0, i64 %50
  store ptr %45, ptr %51, align 8, !tbaa !637
  br label %35, !llvm.loop !753

52:                                               ; preds = %39
  %53 = load ptr, ptr %7, align 8, !tbaa !641
  %54 = getelementptr inbounds nuw %"class.q::ematch", ptr %11, i32 0, i32 6
  %55 = call noundef ptr @_ZNK10scoped_ptrIN1q7bindingEEptEv(ptr noundef nonnull align 8 dereferenceable(8) %54)
  %56 = getelementptr inbounds nuw %"struct.q::binding", ptr %55, i32 0, i32 2
  store ptr %53, ptr %56, align 8, !tbaa !754
  %57 = load ptr, ptr %6, align 8, !tbaa !644
  %58 = getelementptr inbounds nuw %"class.q::ematch", ptr %11, i32 0, i32 6
  %59 = call noundef ptr @_ZNK10scoped_ptrIN1q7bindingEEptEv(ptr noundef nonnull align 8 dereferenceable(8) %58)
  %60 = getelementptr inbounds nuw %"struct.q::binding", ptr %59, i32 0, i32 1
  store ptr %57, ptr %60, align 8, !tbaa !757
  %61 = getelementptr inbounds nuw %"class.q::ematch", ptr %11, i32 0, i32 6
  %62 = call noundef ptr @_ZNK10scoped_ptrIN1q7bindingEE3getEv(ptr noundef nonnull align 8 dereferenceable(8) %61)
  ret ptr %62
}