; Function Attrs: mustprogress uwtable
define hidden noundef ptr @_ZN1q6ematch11tmp_bindingERNS_6clauseEP3appPKPN3euf5enodeE(ptr noundef nonnull align 8 captures(none) dereferenceable(2680) %0, ptr noundef nonnull align 8 dereferenceable(56) %1, ptr noundef %2, ptr noundef readonly captures(none) %3) local_unnamed_addr #3 align 2 {
  %5 = getelementptr inbounds nuw i8, ptr %1, i64 16
  %6 = load ptr, ptr %5, align 8, !tbaa !617
  %7 = getelementptr inbounds nuw i8, ptr %6, i64 20
  %8 = load i32, ptr %7, align 4, !tbaa !627
  %9 = getelementptr inbounds nuw i8, ptr %0, i64 320
  %10 = load i32, ptr %9, align 8, !tbaa !547
  %11 = icmp ugt i32 %8, %10
  br i1 %11, label %12, label %30

12:                                               ; preds = %4
  %13 = zext i32 %8 to i64
  %14 = shl nuw nsw i64 %13, 3
  %15 = add nuw nsw i64 %14, 48
  %16 = tail call noalias noundef ptr @_ZN6memory8allocateEm(i64 noundef %15)
  tail call void @llvm.memset.p0.i64(ptr noundef nonnull align 8 dereferenceable(48) %16, i8 0, i64 16, i1 false)
  %17 = getelementptr inbounds nuw i8, ptr %16, i64 16
  store ptr %1, ptr %17, align 8, !tbaa !683
  %18 = getelementptr inbounds nuw i8, ptr %16, i64 24
  store ptr %2, ptr %18, align 8, !tbaa !686
  %19 = getelementptr inbounds nuw i8, ptr %16, i64 32
  store i32 0, ptr %19, align 8, !tbaa !687
  %20 = getelementptr inbounds nuw i8, ptr %16, i64 36
  store i32 0, ptr %20, align 4, !tbaa !688
  %21 = getelementptr inbounds nuw i8, ptr %16, i64 40
  store i32 0, ptr %21, align 8, !tbaa !689
  %22 = getelementptr inbounds nuw i8, ptr %0, i64 312
  %23 = load ptr, ptr %22, align 8, !tbaa !546
  %.not.i = icmp eq ptr %23, %16
  br i1 %.not.i, label %_ZN10scoped_ptrIN1q7bindingEEaSEPS1_.exit, label %24

24:                                               ; preds = %12
  %25 = icmp eq ptr %23, null
  br i1 %25, label %_Z7deallocIN1q7bindingEEvPT_.exit.i, label %26

26:                                               ; preds = %24
  tail call void @_ZN6memory10deallocateEPv(ptr noundef nonnull %23)
  br label %_Z7deallocIN1q7bindingEEvPT_.exit.i

_Z7deallocIN1q7bindingEEvPT_.exit.i:              ; preds = %26, %24
  store ptr %16, ptr %22, align 8, !tbaa !546
  br label %_ZN10scoped_ptrIN1q7bindingEEaSEPS1_.exit

_ZN10scoped_ptrIN1q7bindingEEaSEPS1_.exit:        ; preds = %12, %_Z7deallocIN1q7bindingEEvPT_.exit.i
  %27 = load ptr, ptr %5, align 8, !tbaa !617
  %28 = getelementptr inbounds nuw i8, ptr %27, i64 20
  %29 = load i32, ptr %28, align 4, !tbaa !627
  store i32 %29, ptr %9, align 8, !tbaa !547
  br label %30

30:                                               ; preds = %_ZN10scoped_ptrIN1q7bindingEEaSEPS1_.exit, %4
  %31 = phi i32 [ %29, %_ZN10scoped_ptrIN1q7bindingEEaSEPS1_.exit ], [ %8, %4 ]
  %.not13 = icmp eq i32 %31, 0
  %.phi.trans.insert = getelementptr inbounds nuw i8, ptr %0, i64 312
  %.pre = load ptr, ptr %.phi.trans.insert, align 8, !tbaa !546
  br i1 %.not13, label %._crit_edge, label %.lr.ph

.lr.ph:                                           ; preds = %30
  %32 = getelementptr inbounds nuw i8, ptr %.pre, i64 48
  %33 = zext i32 %31 to i64
  br label %36

._crit_edge:                                      ; preds = %36, %30
  %34 = getelementptr inbounds nuw i8, ptr %.pre, i64 24
  store ptr %2, ptr %34, align 8, !tbaa !686
  %35 = getelementptr inbounds nuw i8, ptr %.pre, i64 16
  store ptr %1, ptr %35, align 8, !tbaa !683
  ret ptr %.pre

36:                                               ; preds = %.lr.ph, %36
  %indvars.iv = phi i64 [ %33, %.lr.ph ], [ %37, %36 ]
  %37 = add nsw i64 %indvars.iv, -1
  %38 = getelementptr inbounds nuw ptr, ptr %3, i64 %37
  %39 = load ptr, ptr %38, align 8, !tbaa !635
  %40 = getelementptr inbounds nuw [0 x ptr], ptr %32, i64 0, i64 %37
  store ptr %39, ptr %40, align 8, !tbaa !635
  %.not.wide = icmp eq i64 %37, 0
  br i1 %.not.wide, label %._crit_edge, label %36, !llvm.loop !690
}